target datalayout = "e-m:e-p270:32:32-p271:32:32-p272:64:64-i64:64-i128:128-f80:128-n8:16:32:64-S128"
target triple = "x86_64-pc-linux-gnu"

%struct.KeccakWidth1600_12rounds_SpongeInstanceStruct = type { [200 x i8], i32, i32, i32 }

; Function Attrs: nounwind uwtable
define hidden i32 @KeccakWidth1600_12rounds_SpongeAbsorb(ptr noundef %0, ptr noundef %1, i64 noundef %2) #0 {
  %4 = alloca i32, align 4
  %5 = alloca ptr, align 8
  %6 = alloca ptr, align 8
  %7 = alloca i64, align 8
  %8 = alloca i64, align 8
  %9 = alloca i64, align 8
  %10 = alloca i32, align 4
  %11 = alloca ptr, align 8
  %12 = alloca i32, align 4
  %13 = alloca i32, align 4
  store ptr %0, ptr %5, align 8, !tbaa !20
  store ptr %1, ptr %6, align 8, !tbaa !8
  store i64 %2, ptr %7, align 8, !tbaa !11
  call void @llvm.lifetime.start.p0(i64 8, ptr %8) #3
  call void @llvm.lifetime.start.p0(i64 8, ptr %9) #3
  call void @llvm.lifetime.start.p0(i64 4, ptr %10) #3
  call void @llvm.lifetime.start.p0(i64 8, ptr %11) #3
  call void @llvm.lifetime.start.p0(i64 4, ptr %12) #3
  %14 = load ptr, ptr %5, align 8, !tbaa !20
  %15 = getelementptr inbounds nuw %struct.KeccakWidth1600_12rounds_SpongeInstanceStruct, ptr %14, i32 0, i32 1
  %16 = load i32, ptr %15, align 8, !tbaa !22
  %17 = udiv i32 %16, 8
  store i32 %17, ptr %12, align 4, !tbaa !4
  %18 = load ptr, ptr %5, align 8, !tbaa !20
  %19 = getelementptr inbounds nuw %struct.KeccakWidth1600_12rounds_SpongeInstanceStruct, ptr %18, i32 0, i32 3
  %20 = load i32, ptr %19, align 8, !tbaa !25
  %21 = icmp ne i32 %20, 0
  br i1 %21, label %22, label %23

22:                                               ; preds = %3
  store i32 1, ptr %4, align 4
  store i32 1, ptr %13, align 4
  br label %130

23:                                               ; preds = %3
  store i64 0, ptr %8, align 8, !tbaa !11
  %24 = load ptr, ptr %6, align 8, !tbaa !8
  store ptr %24, ptr %11, align 8, !tbaa !8
  br label %25

25:                                               ; preds = %128, %23
  %26 = load i64, ptr %8, align 8, !tbaa !11
  %27 = load i64, ptr %7, align 8, !tbaa !11
  %28 = icmp ult i64 %26, %27
  br i1 %28, label %29, label %129

29:                                               ; preds = %25
  %30 = load ptr, ptr %5, align 8, !tbaa !20
  %31 = getelementptr inbounds nuw %struct.KeccakWidth1600_12rounds_SpongeInstanceStruct, ptr %30, i32 0, i32 2
  %32 = load i32, ptr %31, align 4, !tbaa !24
  %33 = icmp eq i32 %32, 0
  br i1 %33, label %34, label %72

34:                                               ; preds = %29
  %35 = load i64, ptr %7, align 8, !tbaa !11
  %36 = load i64, ptr %8, align 8, !tbaa !11
  %37 = sub i64 %35, %36
  %38 = load i32, ptr %12, align 4, !tbaa !4
  %39 = zext i32 %38 to i64
  %40 = icmp uge i64 %37, %39
  br i1 %40, label %41, label %72

41:                                               ; preds = %34
  %42 = load i64, ptr %7, align 8, !tbaa !11
  %43 = load i64, ptr %8, align 8, !tbaa !11
  %44 = sub i64 %42, %43
  store i64 %44, ptr %9, align 8, !tbaa !11
  br label %45

45:                                               ; preds = %63, %41
  %46 = load i64, ptr %9, align 8, !tbaa !11
  %47 = load i32, ptr %12, align 4, !tbaa !4
  %48 = zext i32 %47 to i64
  %49 = icmp uge i64 %46, %48
  br i1 %49, label %50, label %68

50:                                               ; preds = %45
  %51 = load ptr, ptr %5, align 8, !tbaa !20
  %52 = getelementptr inbounds nuw %struct.KeccakWidth1600_12rounds_SpongeInstanceStruct, ptr %51, i32 0, i32 0
  %53 = getelementptr inbounds [200 x i8], ptr %52, i64 0, i64 0
  %54 = load ptr, ptr %11, align 8, !tbaa !8
  %55 = load i32, ptr %12, align 4, !tbaa !4
  call void @KeccakP1600_AddBytes(ptr noundef %53, ptr noundef %54, i32 noundef 0, i32 noundef %55)
  %56 = load ptr, ptr %5, align 8, !tbaa !20
  %57 = getelementptr inbounds nuw %struct.KeccakWidth1600_12rounds_SpongeInstanceStruct, ptr %56, i32 0, i32 0
  %58 = getelementptr inbounds [200 x i8], ptr %57, i64 0, i64 0
  call void @KeccakP1600_Permute_12rounds(ptr noundef %58)
  %59 = load i32, ptr %12, align 4, !tbaa !4
  %60 = load ptr, ptr %11, align 8, !tbaa !8
  %61 = zext i32 %59 to i64
  %62 = getelementptr inbounds nuw i8, ptr %60, i64 %61
  store ptr %62, ptr %11, align 8, !tbaa !8
  br label %63

63:                                               ; preds = %50
  %64 = load i32, ptr %12, align 4, !tbaa !4
  %65 = zext i32 %64 to i64
  %66 = load i64, ptr %9, align 8, !tbaa !11
  %67 = sub i64 %66, %65
  store i64 %67, ptr %9, align 8, !tbaa !11
  br label %45

68:                                               ; preds = %45
  %69 = load i64, ptr %7, align 8, !tbaa !11
  %70 = load i64, ptr %9, align 8, !tbaa !11
  %71 = sub i64 %69, %70
  store i64 %71, ptr %8, align 8, !tbaa !11
  br label %128

72:                                               ; preds = %34, %29
  %73 = load i64, ptr %7, align 8, !tbaa !11
  %74 = load i64, ptr %8, align 8, !tbaa !11
  %75 = sub i64 %73, %74
  %76 = load i32, ptr %12, align 4, !tbaa !4
  %77 = load ptr, ptr %5, align 8, !tbaa !20
  %78 = getelementptr inbounds nuw %struct.KeccakWidth1600_12rounds_SpongeInstanceStruct, ptr %77, i32 0, i32 2
  %79 = load i32, ptr %78, align 4, !tbaa !24
  %80 = sub i32 %76, %79
  %81 = zext i32 %80 to i64
  %82 = icmp ugt i64 %75, %81
  br i1 %82, label %83, label %89

83:                                               ; preds = %72
  %84 = load i32, ptr %12, align 4, !tbaa !4
  %85 = load ptr, ptr %5, align 8, !tbaa !20
  %86 = getelementptr inbounds nuw %struct.KeccakWidth1600_12rounds_SpongeInstanceStruct, ptr %85, i32 0, i32 2
  %87 = load i32, ptr %86, align 4, !tbaa !24
  %88 = sub i32 %84, %87
  store i32 %88, ptr %10, align 4, !tbaa !4
  br label %94

89:                                               ; preds = %72
  %90 = load i64, ptr %7, align 8, !tbaa !11
  %91 = load i64, ptr %8, align 8, !tbaa !11
  %92 = sub i64 %90, %91
  %93 = trunc i64 %92 to i32
  store i32 %93, ptr %10, align 4, !tbaa !4
  br label %94

94:                                               ; preds = %89, %83
  %95 = load i32, ptr %10, align 4, !tbaa !4
  %96 = zext i32 %95 to i64
  %97 = load i64, ptr %8, align 8, !tbaa !11
  %98 = add i64 %97, %96
  store i64 %98, ptr %8, align 8, !tbaa !11
  %99 = load ptr, ptr %5, align 8, !tbaa !20
  %100 = getelementptr inbounds nuw %struct.KeccakWidth1600_12rounds_SpongeInstanceStruct, ptr %99, i32 0, i32 0
  %101 = getelementptr inbounds [200 x i8], ptr %100, i64 0, i64 0
  %102 = load ptr, ptr %11, align 8, !tbaa !8
  %103 = load ptr, ptr %5, align 8, !tbaa !20
  %104 = getelementptr inbounds nuw %struct.KeccakWidth1600_12rounds_SpongeInstanceStruct, ptr %103, i32 0, i32 2
  %105 = load i32, ptr %104, align 4, !tbaa !24
  %106 = load i32, ptr %10, align 4, !tbaa !4
  call void @KeccakP1600_AddBytes(ptr noundef %101, ptr noundef %102, i32 noundef %105, i32 noundef %106)
  %107 = load i32, ptr %10, align 4, !tbaa !4
  %108 = load ptr, ptr %11, align 8, !tbaa !8
  %109 = zext i32 %107 to i64
  %110 = getelementptr inbounds nuw i8, ptr %108, i64 %109
  store ptr %110, ptr %11, align 8, !tbaa !8
  %111 = load i32, ptr %10, align 4, !tbaa !4
  %112 = load ptr, ptr %5, align 8, !tbaa !20
  %113 = getelementptr inbounds nuw %struct.KeccakWidth1600_12rounds_SpongeInstanceStruct, ptr %112, i32 0, i32 2
  %114 = load i32, ptr %113, align 4, !tbaa !24
  %115 = add i32 %114, %111
  store i32 %115, ptr %113, align 4, !tbaa !24
  %116 = load ptr, ptr %5, align 8, !tbaa !20
  %117 = getelementptr inbounds nuw %struct.KeccakWidth1600_12rounds_SpongeInstanceStruct, ptr %116, i32 0, i32 2
  %118 = load i32, ptr %117, align 4, !tbaa !24
  %119 = load i32, ptr %12, align 4, !tbaa !4
  %120 = icmp eq i32 %118, %119
  br i1 %120, label %121, label %127

121:                                              ; preds = %94
  %122 = load ptr, ptr %5, align 8, !tbaa !20
  %123 = getelementptr inbounds nuw %struct.KeccakWidth1600_12rounds_SpongeInstanceStruct, ptr %122, i32 0, i32 0
  %124 = getelementptr inbounds [200 x i8], ptr %123, i64 0, i64 0
  call void @KeccakP1600_Permute_12rounds(ptr noundef %124)
  %125 = load ptr, ptr %5, align 8, !tbaa !20
  %126 = getelementptr inbounds nuw %struct.KeccakWidth1600_12rounds_SpongeInstanceStruct, ptr %125, i32 0, i32 2
  store i32 0, ptr %126, align 4, !tbaa !24
  br label %127

127:                                              ; preds = %121, %94
  br label %128

128:                                              ; preds = %127, %68
  br label %25

129:                                              ; preds = %25
  store i32 0, ptr %4, align 4
  store i32 1, ptr %13, align 4
  br label %130

130:                                              ; preds = %129, %22
  call void @llvm.lifetime.end.p0(i64 4, ptr %12) #3
  call void @llvm.lifetime.end.p0(i64 8, ptr %11) #3
  call void @llvm.lifetime.end.p0(i64 4, ptr %10) #3
  call void @llvm.lifetime.end.p0(i64 8, ptr %9) #3
  call void @llvm.lifetime.end.p0(i64 8, ptr %8) #3
  %131 = load i32, ptr %4, align 4
  ret i32 %131
}