; Function Attrs: nounwind uwtable
define hidden range(i32 0, 2) i32 @KeccakWidth1600_12rounds_SpongeAbsorb(ptr noundef %0, ptr noundef %1, i64 noundef %2) local_unnamed_addr #0 {
  %4 = getelementptr inbounds nuw i8, ptr %0, i64 200
  %5 = load i32, ptr %4, align 8, !tbaa !12
  %6 = lshr i32 %5, 3
  %7 = getelementptr inbounds nuw i8, ptr %0, i64 208
  %8 = load i32, ptr %7, align 8, !tbaa !15
  %.not = icmp eq i32 %8, 0
  br i1 %.not, label %.preheader57, label %.loopexit

.preheader57:                                     ; preds = %3
  %.not62 = icmp eq i64 %2, 0
  br i1 %.not62, label %.loopexit, label %.lr.ph

.lr.ph:                                           ; preds = %.preheader57
  %9 = getelementptr inbounds nuw i8, ptr %0, i64 204
  %10 = zext nneg i32 %6 to i64
  br label %11

11:                                               ; preds = %.lr.ph, %28
  %.04561 = phi ptr [ %1, %.lr.ph ], [ %.2, %28 ]
  %.04860 = phi i64 [ 0, %.lr.ph ], [ %.149, %28 ]
  %12 = load i32, ptr %9, align 4, !tbaa !14
  %13 = icmp ne i32 %12, 0
  %14 = sub i64 %2, %.04860
  %.not54 = icmp ult i64 %14, %10
  %or.cond = select i1 %13, i1 true, i1 %.not54
  br i1 %or.cond, label %19, label %.preheader

.preheader:                                       ; preds = %11, %.preheader
  %.159 = phi ptr [ %15, %.preheader ], [ %.04561, %11 ]
  %.04758 = phi i64 [ %16, %.preheader ], [ %14, %11 ]
  tail call void @KeccakP1600_AddBytes(ptr noundef %0, ptr noundef %.159, i32 noundef 0, i32 noundef %6) #4
  tail call void @KeccakP1600_Permute_12rounds(ptr noundef %0) #4
  %15 = getelementptr inbounds nuw i8, ptr %.159, i64 %10
  %16 = sub nuw i64 %.04758, %10
  %.not55 = icmp ult i64 %16, %10
  br i1 %.not55, label %17, label %.preheader

17:                                               ; preds = %.preheader
  %18 = sub i64 %2, %16
  br label %28

19:                                               ; preds = %11
  %20 = sub i32 %6, %12
  %21 = zext i32 %20 to i64
  %.04656 = tail call i64 @llvm.umin.i64(i64 %14, i64 %21)
  %.046 = trunc nuw i64 %.04656 to i32
  %22 = add i64 %.04656, %.04860
  tail call void @KeccakP1600_AddBytes(ptr noundef nonnull %0, ptr noundef %.04561, i32 noundef %12, i32 noundef %.046) #4
  %23 = getelementptr inbounds nuw i8, ptr %.04561, i64 %.04656
  %24 = load i32, ptr %9, align 4, !tbaa !14
  %25 = add i32 %24, %.046
  store i32 %25, ptr %9, align 4, !tbaa !14
  %26 = icmp eq i32 %25, %6
  br i1 %26, label %27, label %28

27:                                               ; preds = %19
  tail call void @KeccakP1600_Permute_12rounds(ptr noundef nonnull %0) #4
  store i32 0, ptr %9, align 4, !tbaa !14
  br label %28

28:                                               ; preds = %19, %27, %17
  %.149 = phi i64 [ %18, %17 ], [ %22, %27 ], [ %22, %19 ]
  %.2 = phi ptr [ %15, %17 ], [ %23, %27 ], [ %23, %19 ]
  %29 = icmp ult i64 %.149, %2
  br i1 %29, label %11, label %.loopexit

.loopexit:                                        ; preds = %28, %.preheader57, %3
  %.0 = phi i32 [ 1, %3 ], [ 0, %.preheader57 ], [ 0, %28 ]
  ret i32 %.0
}